; Function Attrs: mustprogress nofree norecurse nosync nounwind willreturn memory(readwrite, inaccessiblemem: none) uwtable
define void @_ZN10open_spiel10backgammon15BackgammonState17SetupInitialBoardEv(ptr nocapture noundef nonnull readonly align 8 dereferenceable(216) %0) local_unnamed_addr #8 align 2 {
  %2 = getelementptr inbounds nuw i8, ptr %0, i64 64
  %3 = load i8, ptr %2, align 8
  %4 = trunc i8 %3 to i1
  %5 = getelementptr inbounds nuw i8, ptr %0, i64 168
  %6 = load ptr, ptr %5, align 8
  %7 = load ptr, ptr %6, align 8
  br i1 %4, label %8, label %15

8:                                                ; preds = %1
  %9 = getelementptr inbounds i8, ptr %7, i64 8
  store i32 1, ptr %9, align 4
  %10 = load ptr, ptr %5, align 8
  %11 = load ptr, ptr %10, align 8
  %12 = getelementptr inbounds i8, ptr %11, i64 4
  store i32 1, ptr %12, align 4
  %13 = load ptr, ptr %5, align 8
  %14 = load ptr, ptr %13, align 8
  store i32 1, ptr %14, align 4
  br label %29

15:                                               ; preds = %1
  store i32 2, ptr %7, align 4
  %16 = load ptr, ptr %5, align 8
  %17 = load ptr, ptr %16, align 8
  %18 = getelementptr inbounds i8, ptr %17, i64 44
  store i32 5, ptr %18, align 4
  %19 = load ptr, ptr %5, align 8
  %20 = load ptr, ptr %19, align 8
  %21 = getelementptr inbounds i8, ptr %20, i64 64
  store i32 3, ptr %21, align 4
  %22 = load ptr, ptr %5, align 8
  %23 = load ptr, ptr %22, align 8
  %24 = getelementptr inbounds i8, ptr %23, i64 72
  store i32 5, ptr %24, align 4
  %25 = load ptr, ptr %5, align 8
  %26 = getelementptr inbounds i8, ptr %25, i64 24
  %27 = load ptr, ptr %26, align 8
  %28 = getelementptr inbounds i8, ptr %27, i64 92
  store i32 2, ptr %28, align 4
  br label %29

29:                                               ; preds = %15, %8
  %.sink15 = phi i64 [ 48, %15 ], [ 84, %8 ]
  %.sink12 = phi i32 [ 5, %15 ], [ 1, %8 ]
  %.sink9 = phi i64 [ 28, %15 ], [ 88, %8 ]
  %.sink6 = phi i32 [ 3, %15 ], [ 1, %8 ]
  %.sink3 = phi i64 [ 20, %15 ], [ 92, %8 ]
  %30 = load ptr, ptr %5, align 8
  %31 = getelementptr inbounds i8, ptr %30, i64 24
  %32 = load ptr, ptr %31, align 8
  %33 = getelementptr inbounds i8, ptr %32, i64 %.sink15
  store i32 %.sink12, ptr %33, align 4
  %34 = load ptr, ptr %5, align 8
  %35 = getelementptr inbounds i8, ptr %34, i64 24
  %36 = load ptr, ptr %35, align 8
  %37 = getelementptr inbounds i8, ptr %36, i64 %.sink9
  store i32 %.sink6, ptr %37, align 4
  %38 = load ptr, ptr %5, align 8
  %39 = getelementptr inbounds i8, ptr %38, i64 24
  %40 = load ptr, ptr %39, align 8
  %41 = getelementptr inbounds i8, ptr %40, i64 %.sink3
  store i32 %.sink12, ptr %41, align 4
  ret void
}